; Function Attrs: nounwind uwtable
define internal fastcc i32 @set_fromdata_uint(ptr noundef %0, ptr noundef %1) unnamed_addr #0 {
  %3 = alloca i32, align 4
  %4 = alloca [2 x %struct.ossl_param_st], align 16
  %5 = alloca ptr, align 8
  %6 = alloca %struct.ossl_param_st, align 8
  call void @llvm.lifetime.start.p0(i64 4, ptr nonnull %3) #7
  store i32 0, ptr %3, align 4, !tbaa !22
  call void @llvm.lifetime.start.p0(i64 80, ptr nonnull %4) #7
  call void @llvm.lifetime.start.p0(i64 8, ptr nonnull %5) #7
  store ptr null, ptr %5, align 8, !tbaa !26
  %7 = tail call i32 @EVP_PKEY_fromdata_init(ptr noundef %0) #7
  %.not = icmp eq i32 %7, 1
  br i1 %.not, label %8, label %12

8:                                                ; preds = %2
  call void @OSSL_PARAM_construct_uint(ptr dead_on_unwind nonnull writable sret(%struct.ossl_param_st) align 8 %4, ptr noundef %1, ptr noundef nonnull %3) #7
  %9 = getelementptr inbounds nuw i8, ptr %4, i64 40
  call void @llvm.lifetime.start.p0(i64 40, ptr nonnull %6) #7
  call void @OSSL_PARAM_construct_end(ptr dead_on_unwind nonnull writable sret(%struct.ossl_param_st) align 8 %6) #7
  call void @llvm.memcpy.p0.p0.i64(ptr noundef nonnull align 8 dereferenceable(40) %9, ptr noundef nonnull align 8 dereferenceable(40) %6, i64 40, i1 false), !tbaa.struct !23
  call void @llvm.lifetime.end.p0(i64 40, ptr nonnull %6) #7
  %10 = call i32 @EVP_PKEY_fromdata(ptr noundef %0, ptr noundef nonnull %5, i32 noundef 132, ptr noundef nonnull %4) #7
  %11 = load ptr, ptr %5, align 8, !tbaa !26
  call void @EVP_PKEY_free(ptr noundef %11) #7
  br label %12

12:                                               ; preds = %2, %8
  %.0 = phi i32 [ %10, %8 ], [ -1, %2 ]
  call void @llvm.lifetime.end.p0(i64 8, ptr nonnull %5) #7
  call void @llvm.lifetime.end.p0(i64 80, ptr nonnull %4) #7
  call void @llvm.lifetime.end.p0(i64 4, ptr nonnull %3) #7
  ret i32 %.0
}